; Function Attrs: mustprogress nofree norecurse nosync nounwind willreturn memory(read, argmem: readwrite, inaccessiblemem: none) uwtable
define hidden noundef zeroext i1 @_ZNK17array_recognizers8is_constEP4exprRS1_(ptr nocapture noundef nonnull readonly align 4 dereferenceable(4) %this, ptr nocapture noundef readonly %e, ptr nocapture noundef nonnull writeonly align 8 dereferenceable(8) %v) local_unnamed_addr #9 align 2 {
entry:
  %0 = load i32, ptr %this, align 4
  %m_kind.i.i.i = getelementptr inbounds i8, ptr %e, i64 4
  %bf.load.i.i.i = load i32, ptr %m_kind.i.i.i, align 4
  %bf.clear.i.i.i = and i32 %bf.load.i.i.i, 65535
  %cmp.i.i = icmp eq i32 %bf.clear.i.i.i, 0
  br i1 %cmp.i.i, label %land.rhs.i.i, label %land.end

land.rhs.i.i:                                     ; preds = %entry
  %m_decl.i.i.i = getelementptr inbounds i8, ptr %e, i64 16
  %1 = load ptr, ptr %m_decl.i.i.i, align 8
  %m_info.i.i.i.i = getelementptr inbounds i8, ptr %1, i64 24
  %2 = load ptr, ptr %m_info.i.i.i.i, align 8
  %tobool.not.i.i.i.i = icmp eq ptr %2, null
  br i1 %tobool.not.i.i.i.i, label %land.end, label %_ZNK17array_recognizers8is_constEP4expr.exit

_ZNK17array_recognizers8is_constEP4expr.exit:     ; preds = %land.rhs.i.i
  %3 = load i32, ptr %2, align 8
  %cmp.i.i.i.i.i = icmp eq i32 %3, %0
  %m_kind.i.i.i.i.i = getelementptr inbounds i8, ptr %2, i64 4
  %4 = load i32, ptr %m_kind.i.i.i.i.i, align 4
  %cmp2.i.i.i.i.i = icmp eq i32 %4, 2
  %5 = select i1 %cmp.i.i.i.i.i, i1 %cmp2.i.i.i.i.i, i1 false
  br i1 %5, label %land.rhs, label %land.end

land.rhs:                                         ; preds = %_ZNK17array_recognizers8is_constEP4expr.exit
  %m_args.i = getelementptr inbounds i8, ptr %e, i64 32
  %6 = load ptr, ptr %m_args.i, align 8
  store ptr %6, ptr %v, align 8
  br label %land.end

land.end:                                         ; preds = %land.rhs.i.i, %entry, %land.rhs, %_ZNK17array_recognizers8is_constEP4expr.exit
  %7 = phi i1 [ true, %land.rhs ], [ false, %_ZNK17array_recognizers8is_constEP4expr.exit ], [ false, %entry ], [ false, %land.rhs.i.i ]
  ret i1 %7
}